; Function Attrs: null_pointer_is_valid sspstrong uwtable
define internal range(i32 4, 262152) i32 @dissect_rtcp_rtpfb_tmmbr(ptr noundef %0, ptr readnone captures(none) %1, ptr noundef %2, ptr readnone captures(none) %3) #0 {
  %5 = tail call ptr @proto_tree_get_parent(ptr noundef %2)
  %6 = tail call zeroext i16 @tvb_get_uint16(ptr noundef %0, i32 noundef 2, i32 noundef 0)
  %7 = zext i16 %6 to i32
  %8 = shl nuw nsw i32 %7, 2
  %9 = add nuw nsw i32 %8, 4
  %10 = load i32, ptr @hf_rtcp_rtpfb_fmt, align 4
  %11 = tail call ptr @proto_tree_add_item(ptr noundef %2, i32 noundef %10, ptr noundef %0, i32 noundef 0, i32 noundef 1, i32 noundef 0)
  %12 = load i32, ptr @hf_rtcp_pt, align 4
  %13 = tail call ptr @proto_tree_add_item(ptr noundef %2, i32 noundef %12, ptr noundef %0, i32 noundef 1, i32 noundef 1, i32 noundef 0)
  %14 = tail call zeroext i16 @tvb_get_ntohs(ptr noundef %0, i32 noundef 2)
  %15 = load i32, ptr @hf_rtcp_length, align 4
  %16 = tail call ptr @proto_tree_add_item(ptr noundef %2, i32 noundef %15, ptr noundef %0, i32 noundef 2, i32 noundef 2, i32 noundef 0)
  %17 = zext i16 %14 to i32
  %18 = shl nuw nsw i32 %17, 2
  %19 = add nuw nsw i32 %18, 4
  tail call void (ptr, ptr, ...) @proto_item_append_text(ptr noundef %16, ptr noundef nonnull @.str.915, i32 noundef %19)
  %20 = load i32, ptr @hf_rtcp_ssrc_sender, align 4
  %21 = tail call ptr @proto_tree_add_item(ptr noundef %2, i32 noundef %20, ptr noundef %0, i32 noundef 4, i32 noundef 4, i32 noundef 0)
  %22 = load i32, ptr @hf_rtcp_ssrc_media_source, align 4
  %23 = tail call ptr @proto_tree_add_item(ptr noundef %2, i32 noundef %22, ptr noundef %0, i32 noundef 8, i32 noundef 4, i32 noundef 0)
  %24 = icmp ugt i16 %6, 2
  br i1 %24, label %.lr.ph, label %._crit_edge

.lr.ph:                                           ; preds = %4, %.lr.ph
  %.020 = phi i32 [ %25, %.lr.ph ], [ 0, %4 ]
  %.01819 = phi i32 [ %26, %.lr.ph ], [ 12, %4 ]
  %25 = add i32 %.020, 1
  %26 = tail call fastcc i32 @dissect_rtcp_rtpfb_tmmbr_tmmbn_fci(ptr noundef %0, i32 noundef %.01819, ptr noundef %2, ptr noundef %5, i32 noundef %25, i1 noundef zeroext false)
  %27 = icmp slt i32 %26, %9
  br i1 %27, label %.lr.ph, label %._crit_edge, !llvm.loop !39

._crit_edge:                                      ; preds = %.lr.ph, %4
  %.018.lcssa = phi i32 [ 12, %4 ], [ %26, %.lr.ph ]
  ret i32 %.018.lcssa
}